target datalayout = "e-m:e-p270:32:32-p271:32:32-p272:64:64-i64:64-i128:128-f80:128-n8:16:32:64-S128"
target triple = "x86_64-pc-linux-gnu"

%struct.Vec_Int_t_ = type { i32, i32, ptr }
%struct.Aig_Man_t_ = type { ptr, ptr, ptr, ptr, ptr, ptr, ptr, %struct.Aig_Obj_t_, i32, i32, i32, i32, i32, i32, [7 x i32], i32, ptr, i32, ptr, i32, ptr, i32, i32, i32, ptr, i32, i32, i32, i32, i32, ptr, ptr, i32, ptr, ptr, i32, ptr, ptr, i32, i32, i32, ptr, ptr, ptr, ptr, ptr, ptr, ptr, ptr, ptr, ptr, ptr, ptr, ptr, ptr, i32, ptr, ptr, ptr, ptr, i32, i64, i64, i64, ptr, ptr }
%struct.Aig_Obj_t_ = type { %union.anon, ptr, ptr, i64, i32, i32, %union.anon.0 }
%union.anon = type { ptr }
%union.anon.0 = type { ptr }
%struct.Abc_Ntk_t_ = type { i32, i32, ptr, ptr, ptr, ptr, ptr, ptr, ptr, ptr, ptr, ptr, ptr, [11 x i32], i32, i32, i32, i32, ptr, i32, ptr, ptr, i32, i32, i32, double, i32, %struct.Vec_Int_t_, ptr, ptr, ptr, ptr, ptr, float, i32, ptr, ptr, ptr, ptr, ptr, ptr, ptr, ptr, ptr, ptr, ptr, ptr, ptr, ptr, ptr, ptr, ptr, ptr, ptr, ptr, ptr, ptr }

; Function Attrs: nounwind uwtable
define ptr @Gia_ManDoMuxTransform(ptr noundef %0, i32 noundef %1) #0 {
  %3 = alloca ptr, align 8
  %4 = alloca i32, align 4
  %5 = alloca ptr, align 8
  %6 = alloca ptr, align 8
  %7 = alloca ptr, align 8
  %8 = alloca ptr, align 8
  %9 = alloca ptr, align 8
  store ptr %0, ptr %3, align 8, !tbaa !34
  store i32 %1, ptr %4, align 4, !tbaa !14
  call void @llvm.lifetime.start.p0(i64 8, ptr %5) #13
  store ptr null, ptr %5, align 8, !tbaa !34
  call void @llvm.lifetime.start.p0(i64 8, ptr %6) #13
  %10 = load ptr, ptr %3, align 8, !tbaa !34
  %11 = call ptr @Gia_ManToAig(ptr noundef %10, i32 noundef 0)
  store ptr %11, ptr %6, align 8, !tbaa !149
  call void @llvm.lifetime.start.p0(i64 8, ptr %7) #13
  %12 = load ptr, ptr %6, align 8, !tbaa !149
  %13 = call ptr @Abc_NtkFromAigPhase(ptr noundef %12)
  store ptr %13, ptr %7, align 8, !tbaa !151
  call void @llvm.lifetime.start.p0(i64 8, ptr %8) #13
  %14 = load ptr, ptr %7, align 8, !tbaa !151
  %15 = call ptr @Abc_NtkStartFrom(ptr noundef %14, i32 noundef 2, i32 noundef 1)
  store ptr %15, ptr %8, align 8, !tbaa !151
  %16 = load ptr, ptr %6, align 8, !tbaa !149
  %17 = getelementptr inbounds nuw %struct.Aig_Man_t_, ptr %16, i32 0, i32 0
  %18 = load ptr, ptr %17, align 8, !tbaa !153
  %19 = call ptr @Extra_UtilStrsav(ptr noundef %18)
  %20 = load ptr, ptr %7, align 8, !tbaa !151
  %21 = getelementptr inbounds nuw %struct.Abc_Ntk_t_, ptr %20, i32 0, i32 2
  store ptr %19, ptr %21, align 8, !tbaa !159
  %22 = load ptr, ptr %6, align 8, !tbaa !149
  call void @Aig_ManStop(ptr noundef %22)
  %23 = load ptr, ptr %7, align 8, !tbaa !151
  %24 = load ptr, ptr %8, align 8, !tbaa !151
  %25 = load i32, ptr %4, align 4, !tbaa !14
  %26 = call i32 @Abc_NtkBddToMuxesPerformGlo(ptr noundef %23, ptr noundef %24, i32 noundef 1000000, i32 noundef %25, i32 noundef 0)
  %27 = icmp ne i32 %26, 0
  br i1 %27, label %28, label %34

28:                                               ; preds = %2
  call void @llvm.lifetime.start.p0(i64 8, ptr %9) #13
  %29 = load ptr, ptr %8, align 8, !tbaa !151
  %30 = call ptr @Abc_NtkStrash(ptr noundef %29, i32 noundef 1, i32 noundef 1, i32 noundef 0)
  store ptr %30, ptr %9, align 8, !tbaa !151
  %31 = load ptr, ptr %9, align 8, !tbaa !151
  %32 = call ptr @Abc_NtkStrashToGia(ptr noundef %31)
  store ptr %32, ptr %5, align 8, !tbaa !34
  %33 = load ptr, ptr %9, align 8, !tbaa !151
  call void @Abc_NtkDelete(ptr noundef %33)
  call void @llvm.lifetime.end.p0(i64 8, ptr %9) #13
  br label %34

34:                                               ; preds = %28, %2
  %35 = load ptr, ptr %8, align 8, !tbaa !151
  call void @Abc_NtkDelete(ptr noundef %35)
  %36 = load ptr, ptr %7, align 8, !tbaa !151
  call void @Abc_NtkDelete(ptr noundef %36)
  %37 = load ptr, ptr %5, align 8, !tbaa !34
  call void @llvm.lifetime.end.p0(i64 8, ptr %8) #13
  call void @llvm.lifetime.end.p0(i64 8, ptr %7) #13
  call void @llvm.lifetime.end.p0(i64 8, ptr %6) #13
  call void @llvm.lifetime.end.p0(i64 8, ptr %5) #13
  ret ptr %37
}