; Function Attrs: nounwind uwtable
define ptr @Gia_ManDoMuxTransform(ptr noundef %0, i32 noundef %1) local_unnamed_addr #0 {
  %3 = tail call ptr @Gia_ManToAig(ptr noundef %0, i32 noundef 0) #24
  %4 = tail call ptr @Abc_NtkFromAigPhase(ptr noundef %3) #24
  %5 = tail call ptr @Abc_NtkStartFrom(ptr noundef %4, i32 noundef 2, i32 noundef 1) #24
  %6 = load ptr, ptr %3, align 8, !tbaa !131
  %7 = tail call ptr @Extra_UtilStrsav(ptr noundef %6) #24
  %8 = getelementptr inbounds nuw i8, ptr %4, i64 8
  store ptr %7, ptr %8, align 8, !tbaa !138
  tail call void @Aig_ManStop(ptr noundef nonnull %3) #24
  %9 = tail call i32 @Abc_NtkBddToMuxesPerformGlo(ptr noundef %4, ptr noundef %5, i32 noundef 1000000, i32 noundef %1, i32 noundef 0) #24
  %.not = icmp eq i32 %9, 0
  br i1 %.not, label %13, label %10

10:                                               ; preds = %2
  %11 = tail call ptr @Abc_NtkStrash(ptr noundef %5, i32 noundef 1, i32 noundef 1, i32 noundef 0) #24
  %12 = tail call ptr @Abc_NtkStrashToGia(ptr noundef %11) #24
  tail call void @Abc_NtkDelete(ptr noundef %11) #24
  br label %13

13:                                               ; preds = %10, %2
  %.0 = phi ptr [ %12, %10 ], [ null, %2 ]
  tail call void @Abc_NtkDelete(ptr noundef %5) #24
  tail call void @Abc_NtkDelete(ptr noundef nonnull %4) #24
  ret ptr %.0
}